; Function Attrs: nounwind uwtable
define noalias nonnull ptr @l_Lean_Server_FileWorker_handleDocumentSymbol_toDocumentSymbols___lambda__2___boxed(ptr noundef %0, ptr noundef %1, ptr noundef %2) local_unnamed_addr #0 {
  %4 = tail call ptr @l_Lean_Syntax_getId(ptr noundef %0) #8
  %5 = load ptr, ptr @l_Lean_Server_FileWorker_NamespaceEntry_finish___closed__3, align 8, !tbaa !10
  %6 = tail call ptr @l_Lean_Name_toString(ptr noundef %4, i8 noundef zeroext 1, ptr noundef %5) #8
  tail call void @lean_inc_heartbeat() #8
  %7 = tail call noalias ptr @mi_malloc_small(i64 noundef 24) #8
  %8 = icmp eq ptr %7, null
  br i1 %8, label %9, label %l_Lean_Server_FileWorker_handleDocumentSymbol_toDocumentSymbols___lambda__2.exit

9:                                                ; preds = %3
  tail call void @lean_internal_panic_out_of_memory() #9
  unreachable

l_Lean_Server_FileWorker_handleDocumentSymbol_toDocumentSymbols___lambda__2.exit: ; preds = %3
  %10 = getelementptr inbounds nuw i8, ptr %7, i64 4
  store i32 1, ptr %7, align 4, !tbaa !4
  store i32 131096, ptr %10, align 4
  %11 = getelementptr inbounds nuw i8, ptr %7, i64 8
  store ptr %6, ptr %11, align 8, !tbaa !10
  %12 = getelementptr inbounds nuw i8, ptr %7, i64 16
  store ptr %0, ptr %12, align 8, !tbaa !10
  %13 = ptrtoint ptr %2 to i64
  %14 = and i64 %13, 1
  %.not = icmp eq i64 %14, 0
  br i1 %.not, label %15, label %lean_dec.exit6

15:                                               ; preds = %l_Lean_Server_FileWorker_handleDocumentSymbol_toDocumentSymbols___lambda__2.exit
  %16 = load i32, ptr %2, align 4, !tbaa !4
  %17 = icmp sgt i32 %16, 1
  br i1 %17, label %18, label %20, !prof !9

18:                                               ; preds = %15
  %19 = add nsw i32 %16, -1
  store i32 %19, ptr %2, align 4, !tbaa !4
  br label %lean_dec.exit6

20:                                               ; preds = %15
  %.not.i = icmp eq i32 %16, 0
  br i1 %.not.i, label %lean_dec.exit6, label %21

21:                                               ; preds = %20
  tail call void @lean_dec_ref_cold(ptr noundef nonnull %2) #8
  br label %lean_dec.exit6

lean_dec.exit6:                                   ; preds = %21, %20, %18, %l_Lean_Server_FileWorker_handleDocumentSymbol_toDocumentSymbols___lambda__2.exit
  %22 = ptrtoint ptr %1 to i64
  %23 = and i64 %22, 1
  %.not9 = icmp eq i64 %23, 0
  br i1 %.not9, label %24, label %lean_dec.exit

24:                                               ; preds = %lean_dec.exit6
  %25 = load i32, ptr %1, align 4, !tbaa !4
  %26 = icmp sgt i32 %25, 1
  br i1 %26, label %27, label %29, !prof !9

27:                                               ; preds = %24
  %28 = add nsw i32 %25, -1
  store i32 %28, ptr %1, align 4, !tbaa !4
  br label %lean_dec.exit

29:                                               ; preds = %24
  %.not.i7 = icmp eq i32 %25, 0
  br i1 %.not.i7, label %lean_dec.exit, label %30

30:                                               ; preds = %29
  tail call void @lean_dec_ref_cold(ptr noundef nonnull %1) #8
  br label %lean_dec.exit

lean_dec.exit:                                    ; preds = %30, %29, %27, %lean_dec.exit6
  ret ptr %7
}